; Function Attrs: nounwind uwtable
define ptr @l_Lean_ForEachExprWhere_visit___rarg___lambda__2(ptr noundef %0, ptr noundef %1, ptr noundef %2, ptr noundef %3, ptr noundef %4) #0 {
  tail call void @lean_inc_heartbeat() #3
  %6 = tail call noalias ptr @mi_malloc_small(i64 noundef 48) #3
  %7 = icmp eq ptr %6, null
  br i1 %7, label %8, label %lean_alloc_closure.exit

8:                                                ; preds = %5
  tail call void @lean_internal_panic_out_of_memory() #4
  unreachable

lean_alloc_closure.exit:                          ; preds = %5
  %9 = getelementptr inbounds nuw i8, ptr %6, i64 4
  store i32 1, ptr %6, align 4, !tbaa !4
  store i32 -184549328, ptr %9, align 4
  %10 = getelementptr inbounds nuw i8, ptr %6, i64 8
  store ptr @l_ST_Prim_Ref_get___boxed, ptr %10, align 8, !tbaa !9
  %11 = getelementptr inbounds nuw i8, ptr %6, i64 16
  store i16 4, ptr %11, align 8, !tbaa !15
  %12 = getelementptr inbounds nuw i8, ptr %6, i64 18
  store i16 3, ptr %12, align 2, !tbaa !15
  %13 = getelementptr inbounds nuw i8, ptr %6, i64 24
  store ptr inttoptr (i64 1 to ptr), ptr %13, align 8, !tbaa !9
  %14 = getelementptr inbounds nuw i8, ptr %6, i64 32
  store ptr inttoptr (i64 1 to ptr), ptr %14, align 8, !tbaa !9
  %15 = getelementptr inbounds nuw i8, ptr %6, i64 40
  store ptr %0, ptr %15, align 8, !tbaa !9
  %16 = tail call ptr @lean_apply_2(ptr noundef %1, ptr noundef nonnull inttoptr (i64 1 to ptr), ptr noundef nonnull %6) #3
  tail call void @lean_inc_heartbeat() #3
  %17 = tail call noalias ptr @mi_malloc_small(i64 noundef 40) #3
  %18 = icmp eq ptr %17, null
  br i1 %18, label %19, label %lean_alloc_closure.exit14

19:                                               ; preds = %lean_alloc_closure.exit
  tail call void @lean_internal_panic_out_of_memory() #4
  unreachable

lean_alloc_closure.exit14:                        ; preds = %lean_alloc_closure.exit
  %20 = getelementptr inbounds nuw i8, ptr %17, i64 4
  store i32 1, ptr %17, align 4, !tbaa !4
  store i32 -184549336, ptr %20, align 4
  %21 = getelementptr inbounds nuw i8, ptr %17, i64 8
  store ptr @l_Lean_ForEachExprWhere_visit___rarg___lambda__1, ptr %21, align 8, !tbaa !9
  %22 = getelementptr inbounds nuw i8, ptr %17, i64 16
  store i16 3, ptr %22, align 8, !tbaa !15
  %23 = getelementptr inbounds nuw i8, ptr %17, i64 18
  store i16 2, ptr %23, align 2, !tbaa !15
  %24 = getelementptr inbounds nuw i8, ptr %17, i64 24
  store ptr %2, ptr %24, align 8, !tbaa !9
  %25 = getelementptr inbounds nuw i8, ptr %17, i64 32
  store ptr %4, ptr %25, align 8, !tbaa !9
  %26 = tail call ptr @lean_apply_4(ptr noundef %3, ptr noundef nonnull inttoptr (i64 1 to ptr), ptr noundef nonnull inttoptr (i64 1 to ptr), ptr noundef %16, ptr noundef nonnull %17) #3
  ret ptr %26
}